#include <math.h>
#include <stdio.h>
#include <stdlib.h>
#include <string.h>

int main(){
	int i,j,m;
	int d[100];
	double a,b,e,s=0;
	scanf("%d",&m);
	for(i=0;i<m;i++){
		a=2.0;b=1.0;
		scanf("%d",&d[i]);
		for(j=0;j<d[i];j++){
			s+=a/b;
			e=b;
			b=a;
			a=a+e;
		}
		printf("%.3lf\n",s);
		s=0;
	}
	return 0;
}