; ModuleID = '29/1260.c'
source_filename = "29/1260.c"
target datalayout = "e-m:e-p270:32:32-p271:32:32-p272:64:64-i64:64-f80:128-n8:16:32:64-S128"
target triple = "x86_64-pc-linux-gnu"

@.str = private unnamed_addr constant [3 x i8] c"%d\00", align 1
@.str.1 = private unnamed_addr constant [7 x i8] c"%.3lf\0A\00", align 1

; Function Attrs: noinline nounwind uwtable
define dso_local i32 @main() #0 {
  %1 = alloca i32, align 4
  %2 = alloca i32, align 4
  %3 = alloca i32, align 4
  %4 = alloca i32, align 4
  %5 = alloca [100 x i32], align 16
  %6 = alloca double, align 8
  %7 = alloca double, align 8
  %8 = alloca double, align 8
  %9 = alloca double, align 8
  store i32 0, i32* %1, align 4
  store double 0.000000e+00, double* %9, align 8
  %10 = call i32 (i8*, ...) @__isoc99_scanf(i8* getelementptr inbounds ([3 x i8], [3 x i8]* @.str, i64 0, i64 0), i32* %4)
  store i32 0, i32* %2, align 4
  br label %11

11:                                               ; preds = %44, %0
  %12 = load i32, i32* %2, align 4
  %13 = load i32, i32* %4, align 4
  %14 = icmp slt i32 %12, %13
  br i1 %14, label %15, label %47

15:                                               ; preds = %11
  store double 2.000000e+00, double* %6, align 8
  store double 1.000000e+00, double* %7, align 8
  %16 = load i32, i32* %2, align 4
  %17 = sext i32 %16 to i64
  %18 = getelementptr inbounds [100 x i32], [100 x i32]* %5, i64 0, i64 %17
  %19 = call i32 (i8*, ...) @__isoc99_scanf(i8* getelementptr inbounds ([3 x i8], [3 x i8]* @.str, i64 0, i64 0), i32* %18)
  store i32 0, i32* %3, align 4
  br label %20

20:                                               ; preds = %38, %15
  %21 = load i32, i32* %3, align 4
  %22 = load i32, i32* %2, align 4
  %23 = sext i32 %22 to i64
  %24 = getelementptr inbounds [100 x i32], [100 x i32]* %5, i64 0, i64 %23
  %25 = load i32, i32* %24, align 4
  %26 = icmp slt i32 %21, %25
  br i1 %26, label %27, label %41

27:                                               ; preds = %20
  %28 = load double, double* %6, align 8
  %29 = load double, double* %7, align 8
  %30 = fdiv double %28, %29
  %31 = load double, double* %9, align 8
  %32 = fadd double %31, %30
  store double %32, double* %9, align 8
  %33 = load double, double* %7, align 8
  store double %33, double* %8, align 8
  %34 = load double, double* %6, align 8
  store double %34, double* %7, align 8
  %35 = load double, double* %6, align 8
  %36 = load double, double* %8, align 8
  %37 = fadd double %35, %36
  store double %37, double* %6, align 8
  br label %38

38:                                               ; preds = %27
  %39 = load i32, i32* %3, align 4
  %40 = add nsw i32 %39, 1
  store i32 %40, i32* %3, align 4
  br label %20

41:                                               ; preds = %20
  %42 = load double, double* %9, align 8
  %43 = call i32 (i8*, ...) @printf(i8* getelementptr inbounds ([7 x i8], [7 x i8]* @.str.1, i64 0, i64 0), double %42)
  store double 0.000000e+00, double* %9, align 8
  br label %44

44:                                               ; preds = %41
  %45 = load i32, i32* %2, align 4
  %46 = add nsw i32 %45, 1
  store i32 %46, i32* %2, align 4
  br label %11

47:                                               ; preds = %11
  ret i32 0
}

declare dso_local i32 @__isoc99_scanf(i8*, ...) #1

declare dso_local i32 @printf(i8*, ...) #1


!llvm.module.flags = !{!0}
!llvm.ident = !{!1}

!0 = !{i32 1, !"wchar_size", i32 4}
!1 = !{!"clang version 10.0.0-4ubuntu1 "}
