; ModuleID = 'source-C-CXX/28/1260.c'
source_filename = "source-C-CXX/28/1260.c"
target datalayout = "e-m:e-p270:32:32-p271:32:32-p272:64:64-i64:64-f80:128-n8:16:32:64-S128"
target triple = "x86_64-pc-linux-gnu"

@.str = private unnamed_addr constant [3 x i8] c"%d\00", align 1
@.str.1 = private unnamed_addr constant [7 x i8] c"%.3lf\0A\00", align 1

; Function Attrs: nofree nounwind sspstrong uwtable
define dso_local i32 @main() local_unnamed_addr #0 {
  %1 = alloca i32, align 4
  %2 = alloca [100 x i32], align 16
  %3 = bitcast i32* %1 to i8*
  call void @llvm.lifetime.start.p0i8(i64 4, i8* nonnull %3) #3
  %4 = bitcast [100 x i32]* %2 to i8*
  call void @llvm.lifetime.start.p0i8(i64 400, i8* nonnull %4) #3
  %5 = call i32 (i8*, ...) @__isoc99_scanf(i8* getelementptr inbounds ([3 x i8], [3 x i8]* @.str, i64 0, i64 0), i32* nonnull %1)
  %6 = load i32, i32* %1, align 4, !tbaa !5
  %7 = icmp sgt i32 %6, 0
  br i1 %7, label %8, label %48

8:                                                ; preds = %0, %41
  %9 = phi i64 [ %44, %41 ], [ 0, %0 ]
  %10 = getelementptr inbounds [100 x i32], [100 x i32]* %2, i64 0, i64 %9
  %11 = call i32 (i8*, ...) @__isoc99_scanf(i8* getelementptr inbounds ([3 x i8], [3 x i8]* @.str, i64 0, i64 0), i32* nonnull %10)
  %12 = load i32, i32* %10, align 4, !tbaa !5
  %13 = icmp sgt i32 %12, 0
  br i1 %13, label %14, label %41

14:                                               ; preds = %8
  %15 = and i32 %12, 1
  %16 = icmp eq i32 %12, 1
  br i1 %16, label %32, label %17

17:                                               ; preds = %14
  %18 = and i32 %12, -2
  br label %19

19:                                               ; preds = %19, %17
  %20 = phi double [ 0.000000e+00, %17 ], [ %28, %19 ]
  %21 = phi double [ 1.000000e+00, %17 ], [ %26, %19 ]
  %22 = phi double [ 2.000000e+00, %17 ], [ %29, %19 ]
  %23 = phi i32 [ %18, %17 ], [ %30, %19 ]
  %24 = fdiv double %22, %21
  %25 = fadd double %20, %24
  %26 = fadd double %22, %21
  %27 = fdiv double %26, %22
  %28 = fadd double %25, %27
  %29 = fadd double %26, %22
  %30 = add i32 %23, -2
  %31 = icmp eq i32 %30, 0
  br i1 %31, label %32, label %19, !llvm.loop !9

32:                                               ; preds = %19, %14
  %33 = phi double [ undef, %14 ], [ %28, %19 ]
  %34 = phi double [ 0.000000e+00, %14 ], [ %28, %19 ]
  %35 = phi double [ 1.000000e+00, %14 ], [ %26, %19 ]
  %36 = phi double [ 2.000000e+00, %14 ], [ %29, %19 ]
  %37 = icmp eq i32 %15, 0
  br i1 %37, label %41, label %38

38:                                               ; preds = %32
  %39 = fdiv double %36, %35
  %40 = fadd double %34, %39
  br label %41

41:                                               ; preds = %38, %32, %8
  %42 = phi double [ 0.000000e+00, %8 ], [ %33, %32 ], [ %40, %38 ]
  %43 = call i32 (i8*, ...) @printf(i8* nonnull dereferenceable(1) getelementptr inbounds ([7 x i8], [7 x i8]* @.str.1, i64 0, i64 0), double %42)
  %44 = add nuw nsw i64 %9, 1
  %45 = load i32, i32* %1, align 4, !tbaa !5
  %46 = sext i32 %45 to i64
  %47 = icmp slt i64 %44, %46
  br i1 %47, label %8, label %48, !llvm.loop !11

48:                                               ; preds = %41, %0
  call void @llvm.lifetime.end.p0i8(i64 400, i8* nonnull %4) #3
  call void @llvm.lifetime.end.p0i8(i64 4, i8* nonnull %3) #3
  ret i32 0
}

; Function Attrs: argmemonly mustprogress nofree nosync nounwind willreturn
declare void @llvm.lifetime.start.p0i8(i64 immarg, i8* nocapture) #1

; Function Attrs: nofree nounwind
declare noundef i32 @__isoc99_scanf(i8* nocapture noundef readonly, ...) local_unnamed_addr #2

; Function Attrs: nofree nounwind
declare noundef i32 @printf(i8* nocapture noundef readonly, ...) local_unnamed_addr #2

; Function Attrs: argmemonly mustprogress nofree nosync nounwind willreturn
declare void @llvm.lifetime.end.p0i8(i64 immarg, i8* nocapture) #1


!llvm.module.flags = !{!0, !1, !2, !3}
!llvm.ident = !{!4}

!0 = !{i32 1, !"wchar_size", i32 4}
!1 = !{i32 7, !"PIC Level", i32 2}
!2 = !{i32 7, !"PIE Level", i32 2}
!3 = !{i32 7, !"uwtable", i32 1}
!4 = !{!"clang version 13.0.0"}
!5 = !{!6, !6, i64 0}
!6 = !{!"int", !7, i64 0}
!7 = !{!"omnipotent char", !8, i64 0}
!8 = !{!"Simple C/C++ TBAA"}
!9 = distinct !{!9, !10}
!10 = !{!"llvm.loop.mustprogress"}
!11 = distinct !{!11, !10}
